target datalayout = "e-m:e-p270:32:32-p271:32:32-p272:64:64-i64:64-i128:128-f80:128-n8:16:32:64-S128"
target triple = "x86_64-pc-linux-gnu"

%struct.Qureg = type { i32, i32, i32, i64, i64, i32, i32, %struct.ComplexArray, %struct.ComplexArray, %struct.ComplexArray, ptr, ptr, ptr, ptr, ptr, ptr }
%struct.ComplexArray = type { ptr, ptr }
%struct.QASMLogger = type { ptr, i32, i32, i32 }

@.str.39 = private unnamed_addr constant [26 x i8] c"Initialising state |%lld>\00", align 1

; Function Attrs: nounwind uwtable
define void @qasm_recordGate(ptr noundef byval(%struct.Qureg) align 8 %0, i32 noundef %1, i32 noundef %2) #0 {
  %4 = alloca i32, align 4
  %5 = alloca i32, align 4
  store i32 %1, ptr %4, align 4, !tbaa !25
  store i32 %2, ptr %5, align 4, !tbaa !25
  %6 = getelementptr inbounds nuw %struct.Qureg, ptr %0, i32 0, i32 15
  %7 = load ptr, ptr %6, align 8, !tbaa !10
  %8 = getelementptr inbounds nuw %struct.QASMLogger, ptr %7, i32 0, i32 3
  %9 = load i32, ptr %8, align 8, !tbaa !17
  %10 = icmp ne i32 %9, 0
  br i1 %10, label %12, label %11

11:                                               ; preds = %3
  br label %15

12:                                               ; preds = %3
  %13 = load i32, ptr %4, align 4, !tbaa !25
  %14 = load i32, ptr %5, align 4, !tbaa !25
  call void @addGateToQASM(ptr noundef byval(%struct.Qureg) align 8 %0, i32 noundef %13, ptr noundef null, i32 noundef 0, i32 noundef %14, ptr noundef null, i32 noundef 0)
  br label %15

15:                                               ; preds = %12, %11
  ret void
}

; Function Attrs: nounwind uwtable
define void @qasm_recordInitClassical(ptr noundef byval(%struct.Qureg) align 8 %0, i64 noundef %1) #0 {
  %3 = alloca i64, align 8
  %4 = alloca [1025 x i8], align 16
  %5 = alloca i32, align 4
  store i64 %1, ptr %3, align 8, !tbaa !31
  %6 = getelementptr inbounds nuw %struct.Qureg, ptr %0, i32 0, i32 15
  %7 = load ptr, ptr %6, align 8, !tbaa !10
  %8 = getelementptr inbounds nuw %struct.QASMLogger, ptr %7, i32 0, i32 3
  %9 = load i32, ptr %8, align 8, !tbaa !17
  %10 = icmp ne i32 %9, 0
  br i1 %10, label %12, label %11

11:                                               ; preds = %2
  br label %37

12:                                               ; preds = %2
  call void @llvm.lifetime.start.p0(i64 1025, ptr %4) #7
  %13 = getelementptr inbounds [1025 x i8], ptr %4, i64 0, i64 0
  %14 = load i64, ptr %3, align 8, !tbaa !31
  %15 = call i32 (ptr, ptr, ...) @sprintf(ptr noundef %13, ptr noundef @.str.39, i64 noundef %14) #7
  %16 = getelementptr inbounds [1025 x i8], ptr %4, i64 0, i64 0
  call void (ptr, ptr, ...) @qasm_recordComment(ptr noundef byval(%struct.Qureg) align 8 %0, ptr noundef %16)
  call void @qasm_recordInitZero(ptr noundef byval(%struct.Qureg) align 8 %0)
  call void @llvm.lifetime.start.p0(i64 4, ptr %5) #7
  store i32 0, ptr %5, align 4, !tbaa !25
  br label %17

17:                                               ; preds = %33, %12
  %18 = load i32, ptr %5, align 4, !tbaa !25
  %19 = getelementptr inbounds nuw %struct.Qureg, ptr %0, i32 0, i32 1
  %20 = load i32, ptr %19, align 4, !tbaa !22
  %21 = icmp slt i32 %18, %20
  br i1 %21, label %23, label %22

22:                                               ; preds = %17
  call void @llvm.lifetime.end.p0(i64 4, ptr %5) #7
  br label %36

23:                                               ; preds = %17
  %24 = load i64, ptr %3, align 8, !tbaa !31
  %25 = load i32, ptr %5, align 4, !tbaa !25
  %26 = zext i32 %25 to i64
  %27 = ashr i64 %24, %26
  %28 = and i64 %27, 1
  %29 = icmp ne i64 %28, 0
  br i1 %29, label %30, label %32

30:                                               ; preds = %23
  %31 = load i32, ptr %5, align 4, !tbaa !25
  call void @qasm_recordGate(ptr noundef byval(%struct.Qureg) align 8 %0, i32 noundef 0, i32 noundef %31)
  br label %32

32:                                               ; preds = %30, %23
  br label %33

33:                                               ; preds = %32
  %34 = load i32, ptr %5, align 4, !tbaa !25
  %35 = add nsw i32 %34, 1
  store i32 %35, ptr %5, align 4, !tbaa !25
  br label %17

36:                                               ; preds = %22
  call void @llvm.lifetime.end.p0(i64 1025, ptr %4) #7
  br label %37

37:                                               ; preds = %36, %11
  ret void
}