; Function Attrs: nounwind uwtable
define void @qasm_recordInitClassical(ptr noundef readonly byval(%struct.Qureg) align 8 captures(none) %0, i64 noundef %1) local_unnamed_addr #0 {
  %3 = alloca [1025 x i8], align 16
  %4 = getelementptr inbounds nuw i8, ptr %0, i64 128
  %5 = load ptr, ptr %4, align 8, !tbaa !4
  %6 = getelementptr inbounds nuw i8, ptr %5, i64 16
  %7 = load i32, ptr %6, align 8, !tbaa !14
  %.not = icmp eq i32 %7, 0
  br i1 %.not, label %21, label %8

8:                                                ; preds = %2
  call void @llvm.lifetime.start.p0(i64 1025, ptr nonnull %3) #16
  %9 = call i32 (ptr, ptr, ...) @sprintf(ptr noundef nonnull dereferenceable(1) %3, ptr noundef nonnull dereferenceable(1) @.str.39, i64 noundef %1) #16
  call void (ptr, ptr, ...) @qasm_recordComment(ptr noundef nonnull byval(%struct.Qureg) align 8 %0, ptr noundef nonnull %3)
  tail call void @qasm_recordInitZero(ptr noundef nonnull byval(%struct.Qureg) align 8 %0)
  %10 = getelementptr inbounds nuw i8, ptr %0, i64 4
  %11 = load i32, ptr %10, align 4, !tbaa !19
  %12 = icmp sgt i32 %11, 0
  br i1 %12, label %.lr.ph, label %._crit_edge

.lr.ph:                                           ; preds = %8
  %wide.trip.count = zext nneg i32 %11 to i64
  %.sroa.3.0..sroa_idx = getelementptr inbounds nuw i8, ptr %0, i64 128
  %.sroa.3.0.copyload = load ptr, ptr %.sroa.3.0..sroa_idx, align 8
  %13 = getelementptr inbounds nuw i8, ptr %.sroa.3.0.copyload, i64 16
  br label %14

._crit_edge:                                      ; preds = %qasm_recordGate.exit, %8
  call void @llvm.lifetime.end.p0(i64 1025, ptr nonnull %3) #16
  br label %21

14:                                               ; preds = %.lr.ph, %qasm_recordGate.exit
  %indvars.iv = phi i64 [ 0, %.lr.ph ], [ %indvars.iv.next, %qasm_recordGate.exit ]
  %15 = shl nuw i64 1, %indvars.iv
  %16 = and i64 %15, %1
  %.not6 = icmp eq i64 %16, 0
  br i1 %.not6, label %qasm_recordGate.exit, label %17

17:                                               ; preds = %14
  %18 = load i32, ptr %13, align 8, !tbaa !14
  %.not.i = icmp eq i32 %18, 0
  br i1 %.not.i, label %qasm_recordGate.exit, label %19

19:                                               ; preds = %17
  %20 = trunc nuw nsw i64 %indvars.iv to i32
  tail call void @addGateToQASM(ptr noundef nonnull byval(%struct.Qureg) align 8 %0, i32 noundef 0, ptr noundef null, i32 noundef 0, i32 noundef %20, ptr noundef null, i32 noundef 0)
  br label %qasm_recordGate.exit

qasm_recordGate.exit:                             ; preds = %19, %17, %14
  %indvars.iv.next = add nuw nsw i64 %indvars.iv, 1
  %exitcond.not = icmp eq i64 %indvars.iv.next, %wide.trip.count
  br i1 %exitcond.not, label %._crit_edge, label %14

21:                                               ; preds = %2, %._crit_edge
  ret void
}